target datalayout = "e-m:e-p270:32:32-p271:32:32-p272:64:64-i64:64-i128:128-f80:128-n8:16:32:64-S128"
target triple = "x86_64-pc-linux-gnu"

; Function Attrs: null_pointer_is_valid sspstrong uwtable
define ptr @ws_strdup_underline(ptr noundef %0, i64 noundef %1, i64 noundef %2) #0 {
  %4 = alloca ptr, align 8
  %5 = alloca ptr, align 8
  %6 = alloca i64, align 8
  %7 = alloca i64, align 8
  %8 = alloca ptr, align 8
  %9 = alloca i32, align 4
  %10 = alloca i64, align 8
  store ptr %0, ptr %5, align 8
  store i64 %1, ptr %6, align 8
  store i64 %2, ptr %7, align 8
  %11 = load i64, ptr %6, align 8
  %12 = icmp slt i64 %11, 0
  br i1 %12, label %13, label %14

13:                                               ; preds = %3
  store ptr null, ptr %4, align 8
  br label %46

14:                                               ; preds = %3
  call void @llvm.lifetime.start.p0(i64 8, ptr %8) #15
  %15 = load ptr, ptr %5, align 8
  %16 = load i64, ptr %6, align 8
  %17 = load i64, ptr %7, align 8
  %18 = add i64 %16, %17
  %19 = call noalias ptr @wmem_strbuf_new_sized(ptr noundef %15, i64 noundef %18)
  store ptr %19, ptr %8, align 8
  call void @llvm.lifetime.start.p0(i64 4, ptr %9) #15
  store i32 0, ptr %9, align 4
  br label %20

20:                                               ; preds = %28, %14
  %21 = load i32, ptr %9, align 4
  %22 = sext i32 %21 to i64
  %23 = load i64, ptr %6, align 8
  %24 = icmp slt i64 %22, %23
  br i1 %24, label %26, label %25

25:                                               ; preds = %20
  call void @llvm.lifetime.end.p0(i64 4, ptr %9) #15
  br label %31

26:                                               ; preds = %20
  %27 = load ptr, ptr %8, align 8
  call void @wmem_strbuf_append_c(ptr noundef %27, i8 noundef signext 32)
  br label %28

28:                                               ; preds = %26
  %29 = load i32, ptr %9, align 4
  %30 = add i32 %29, 1
  store i32 %30, ptr %9, align 4
  br label %20, !llvm.loop !30

31:                                               ; preds = %25
  %32 = load ptr, ptr %8, align 8
  call void @wmem_strbuf_append_c(ptr noundef %32, i8 noundef signext 94)
  call void @llvm.lifetime.start.p0(i64 8, ptr %10) #15
  %33 = load i64, ptr %7, align 8
  store i64 %33, ptr %10, align 8
  br label %34

34:                                               ; preds = %40, %31
  %35 = load i64, ptr %10, align 8
  %36 = icmp ugt i64 %35, 1
  br i1 %36, label %38, label %37

37:                                               ; preds = %34
  call void @llvm.lifetime.end.p0(i64 8, ptr %10) #15
  br label %43

38:                                               ; preds = %34
  %39 = load ptr, ptr %8, align 8
  call void @wmem_strbuf_append_c(ptr noundef %39, i8 noundef signext 126)
  br label %40

40:                                               ; preds = %38
  %41 = load i64, ptr %10, align 8
  %42 = add i64 %41, -1
  store i64 %42, ptr %10, align 8
  br label %34, !llvm.loop !31

43:                                               ; preds = %37
  %44 = load ptr, ptr %8, align 8
  %45 = call ptr @wmem_strbuf_finalize(ptr noundef %44)
  store ptr %45, ptr %4, align 8
  call void @llvm.lifetime.end.p0(i64 8, ptr %8) #15
  br label %46

46:                                               ; preds = %43, %13
  %47 = load ptr, ptr %4, align 8
  ret ptr %47
}