; Function Attrs: null_pointer_is_valid sspstrong uwtable
define ptr @ws_strdup_underline(ptr noundef %0, i64 noundef %1, i64 noundef %2) local_unnamed_addr #0 {
  %4 = icmp slt i64 %1, 0
  br i1 %4, label %15, label %5

5:                                                ; preds = %3
  %6 = add i64 %2, %1
  %7 = tail call noalias ptr @wmem_strbuf_new_sized(ptr noundef %0, i64 noundef %6)
  %.not = icmp eq i64 %1, 0
  br i1 %.not, label %._crit_edge, label %.lr.ph

._crit_edge:                                      ; preds = %.lr.ph, %5
  tail call void @wmem_strbuf_append_c(ptr noundef %7, i8 noundef signext 94)
  %8 = icmp ugt i64 %2, 1
  br i1 %8, label %.lr.ph20, label %._crit_edge21

.lr.ph:                                           ; preds = %5, %.lr.ph
  %.01417 = phi i32 [ %9, %.lr.ph ], [ 0, %5 ]
  tail call void @wmem_strbuf_append_c(ptr noundef %7, i8 noundef signext 32)
  %9 = add i32 %.01417, 1
  %10 = sext i32 %9 to i64
  %11 = icmp sgt i64 %1, %10
  br i1 %11, label %.lr.ph, label %._crit_edge, !llvm.loop !28

._crit_edge21:                                    ; preds = %.lr.ph20, %._crit_edge
  %12 = tail call ptr @wmem_strbuf_finalize(ptr noundef %7)
  br label %15

.lr.ph20:                                         ; preds = %._crit_edge, %.lr.ph20
  %.018 = phi i64 [ %13, %.lr.ph20 ], [ %2, %._crit_edge ]
  tail call void @wmem_strbuf_append_c(ptr noundef %7, i8 noundef signext 126)
  %13 = add i64 %.018, -1
  %14 = icmp ugt i64 %13, 1
  br i1 %14, label %.lr.ph20, label %._crit_edge21, !llvm.loop !29

15:                                               ; preds = %3, %._crit_edge21
  %.015 = phi ptr [ %12, %._crit_edge21 ], [ null, %3 ]
  ret ptr %.015
}